target datalayout = "e-m:e-p270:32:32-p271:32:32-p272:64:64-i64:64-i128:128-f80:128-n8:16:32:64-S128"
target triple = "x86_64-pc-linux-gnu"

%struct.AVFilterContext = type { ptr, ptr, ptr, ptr, ptr, i32, ptr, ptr, i32, ptr, ptr, i32, i32, ptr, ptr, ptr, ptr, i32, ptr, i32, i32 }
%struct.PreMultiplyContext = type { ptr, [4 x i32], [4 x i32], [4 x i32], i32, i32, i32, i32, i32, i32, i32, i32, %struct.FFFrameSync, [4 x ptr] }
%struct.FFFrameSync = type { ptr, ptr, i32, %struct.AVRational, i64, ptr, ptr, i32, i32, i8, i8, ptr, i32, i32, i32, i32 }
%struct.AVRational = type { i32, i32 }
%struct.AVChannelLayout = type { i32, i32, %union.anon.1, ptr }
%union.anon.1 = type { i64 }
%struct.AVFrame = type { [8 x ptr], [8 x i32], ptr, i32, i32, i32, i32, i32, %struct.AVRational, i64, i64, %struct.AVRational, i32, ptr, i32, i32, [8 x ptr], ptr, i32, ptr, i32, i32, i32, i32, i32, i32, i32, i64, ptr, i32, ptr, ptr, i64, i64, i64, i64, ptr, %struct.AVChannelLayout, i64 }
%struct.ThreadData = type { ptr, ptr, ptr }

; Function Attrs: nounwind uwtable
define internal i32 @premultiply_slice(ptr noundef %0, ptr noundef %1, i32 noundef %2, i32 noundef %3) #1 {
  %5 = alloca ptr, align 8
  %6 = alloca ptr, align 8
  %7 = alloca i32, align 4
  %8 = alloca i32, align 4
  %9 = alloca ptr, align 8
  %10 = alloca ptr, align 8
  %11 = alloca ptr, align 8
  %12 = alloca ptr, align 8
  %13 = alloca ptr, align 8
  %14 = alloca i32, align 4
  %15 = alloca i32, align 4
  %16 = alloca i32, align 4
  %17 = alloca i32, align 4
  store ptr %0, ptr %5, align 8, !tbaa !4
  store ptr %1, ptr %6, align 8, !tbaa !86
  store i32 %2, ptr %7, align 4, !tbaa !37
  store i32 %3, ptr %8, align 4, !tbaa !37
  call void @llvm.lifetime.start.p0(i64 8, ptr %9) #11
  %18 = load ptr, ptr %5, align 8, !tbaa !4
  %19 = getelementptr inbounds nuw %struct.AVFilterContext, ptr %18, i32 0, i32 9
  %20 = load ptr, ptr %19, align 8, !tbaa !9
  store ptr %20, ptr %9, align 8, !tbaa !22
  call void @llvm.lifetime.start.p0(i64 8, ptr %10) #11
  %21 = load ptr, ptr %6, align 8, !tbaa !86
  store ptr %21, ptr %10, align 8, !tbaa !133
  call void @llvm.lifetime.start.p0(i64 8, ptr %11) #11
  %22 = load ptr, ptr %10, align 8, !tbaa !133
  %23 = getelementptr inbounds nuw %struct.ThreadData, ptr %22, i32 0, i32 2
  %24 = load ptr, ptr %23, align 8, !tbaa !87
  store ptr %24, ptr %11, align 8, !tbaa !41
  call void @llvm.lifetime.start.p0(i64 8, ptr %12) #11
  %25 = load ptr, ptr %10, align 8, !tbaa !133
  %26 = getelementptr inbounds nuw %struct.ThreadData, ptr %25, i32 0, i32 1
  %27 = load ptr, ptr %26, align 8, !tbaa !89
  store ptr %27, ptr %12, align 8, !tbaa !41
  call void @llvm.lifetime.start.p0(i64 8, ptr %13) #11
  %28 = load ptr, ptr %10, align 8, !tbaa !133
  %29 = getelementptr inbounds nuw %struct.ThreadData, ptr %28, i32 0, i32 0
  %30 = load ptr, ptr %29, align 8, !tbaa !90
  store ptr %30, ptr %13, align 8, !tbaa !41
  call void @llvm.lifetime.start.p0(i64 4, ptr %14) #11
  store i32 0, ptr %14, align 4, !tbaa !37
  br label %31

31:                                               ; preds = %257, %4
  %32 = load i32, ptr %14, align 4, !tbaa !37
  %33 = load ptr, ptr %9, align 8, !tbaa !22
  %34 = getelementptr inbounds nuw %struct.PreMultiplyContext, ptr %33, i32 0, i32 4
  %35 = load i32, ptr %34, align 8, !tbaa !135
  %36 = icmp slt i32 %32, %35
  br i1 %36, label %37, label %260

37:                                               ; preds = %31
  call void @llvm.lifetime.start.p0(i64 4, ptr %15) #11
  %38 = load ptr, ptr %9, align 8, !tbaa !22
  %39 = getelementptr inbounds nuw %struct.PreMultiplyContext, ptr %38, i32 0, i32 2
  %40 = load i32, ptr %14, align 4, !tbaa !37
  %41 = sext i32 %40 to i64
  %42 = getelementptr inbounds [4 x i32], ptr %39, i64 0, i64 %41
  %43 = load i32, ptr %42, align 4, !tbaa !37
  %44 = load i32, ptr %7, align 4, !tbaa !37
  %45 = mul nsw i32 %43, %44
  %46 = load i32, ptr %8, align 4, !tbaa !37
  %47 = sdiv i32 %45, %46
  store i32 %47, ptr %15, align 4, !tbaa !37
  call void @llvm.lifetime.start.p0(i64 4, ptr %16) #11
  %48 = load ptr, ptr %9, align 8, !tbaa !22
  %49 = getelementptr inbounds nuw %struct.PreMultiplyContext, ptr %48, i32 0, i32 2
  %50 = load i32, ptr %14, align 4, !tbaa !37
  %51 = sext i32 %50 to i64
  %52 = getelementptr inbounds [4 x i32], ptr %49, i64 0, i64 %51
  %53 = load i32, ptr %52, align 4, !tbaa !37
  %54 = load i32, ptr %7, align 4, !tbaa !37
  %55 = add nsw i32 %54, 1
  %56 = mul nsw i32 %53, %55
  %57 = load i32, ptr %8, align 4, !tbaa !37
  %58 = sdiv i32 %56, %57
  store i32 %58, ptr %16, align 4, !tbaa !37
  %59 = load i32, ptr %14, align 4, !tbaa !37
  %60 = shl i32 1, %59
  %61 = load ptr, ptr %9, align 8, !tbaa !22
  %62 = getelementptr inbounds nuw %struct.PreMultiplyContext, ptr %61, i32 0, i32 5
  %63 = load i32, ptr %62, align 4, !tbaa !136
  %64 = and i32 %60, %63
  %65 = icmp ne i32 %64, 0
  br i1 %65, label %66, label %69

66:                                               ; preds = %37
  %67 = load i32, ptr %14, align 4, !tbaa !37
  %68 = icmp eq i32 %67, 3
  br i1 %68, label %69, label %123

69:                                               ; preds = %66, %37
  %70 = load ptr, ptr %11, align 8, !tbaa !41
  %71 = getelementptr inbounds nuw %struct.AVFrame, ptr %70, i32 0, i32 0
  %72 = load i32, ptr %14, align 4, !tbaa !37
  %73 = sext i32 %72 to i64
  %74 = getelementptr inbounds [8 x ptr], ptr %71, i64 0, i64 %73
  %75 = load ptr, ptr %74, align 8, !tbaa !91
  %76 = load i32, ptr %15, align 4, !tbaa !37
  %77 = load ptr, ptr %11, align 8, !tbaa !41
  %78 = getelementptr inbounds nuw %struct.AVFrame, ptr %77, i32 0, i32 1
  %79 = load i32, ptr %14, align 4, !tbaa !37
  %80 = sext i32 %79 to i64
  %81 = getelementptr inbounds [8 x i32], ptr %78, i64 0, i64 %80
  %82 = load i32, ptr %81, align 4, !tbaa !37
  %83 = mul nsw i32 %76, %82
  %84 = sext i32 %83 to i64
  %85 = getelementptr inbounds i8, ptr %75, i64 %84
  %86 = load ptr, ptr %11, align 8, !tbaa !41
  %87 = getelementptr inbounds nuw %struct.AVFrame, ptr %86, i32 0, i32 1
  %88 = load i32, ptr %14, align 4, !tbaa !37
  %89 = sext i32 %88 to i64
  %90 = getelementptr inbounds [8 x i32], ptr %87, i64 0, i64 %89
  %91 = load i32, ptr %90, align 4, !tbaa !37
  %92 = load ptr, ptr %13, align 8, !tbaa !41
  %93 = getelementptr inbounds nuw %struct.AVFrame, ptr %92, i32 0, i32 0
  %94 = load i32, ptr %14, align 4, !tbaa !37
  %95 = sext i32 %94 to i64
  %96 = getelementptr inbounds [8 x ptr], ptr %93, i64 0, i64 %95
  %97 = load ptr, ptr %96, align 8, !tbaa !91
  %98 = load i32, ptr %15, align 4, !tbaa !37
  %99 = load ptr, ptr %13, align 8, !tbaa !41
  %100 = getelementptr inbounds nuw %struct.AVFrame, ptr %99, i32 0, i32 1
  %101 = load i32, ptr %14, align 4, !tbaa !37
  %102 = sext i32 %101 to i64
  %103 = getelementptr inbounds [8 x i32], ptr %100, i64 0, i64 %102
  %104 = load i32, ptr %103, align 4, !tbaa !37
  %105 = mul nsw i32 %98, %104
  %106 = sext i32 %105 to i64
  %107 = getelementptr inbounds i8, ptr %97, i64 %106
  %108 = load ptr, ptr %13, align 8, !tbaa !41
  %109 = getelementptr inbounds nuw %struct.AVFrame, ptr %108, i32 0, i32 1
  %110 = load i32, ptr %14, align 4, !tbaa !37
  %111 = sext i32 %110 to i64
  %112 = getelementptr inbounds [8 x i32], ptr %109, i64 0, i64 %111
  %113 = load i32, ptr %112, align 4, !tbaa !37
  %114 = load ptr, ptr %9, align 8, !tbaa !22
  %115 = getelementptr inbounds nuw %struct.PreMultiplyContext, ptr %114, i32 0, i32 3
  %116 = load i32, ptr %14, align 4, !tbaa !37
  %117 = sext i32 %116 to i64
  %118 = getelementptr inbounds [4 x i32], ptr %115, i64 0, i64 %117
  %119 = load i32, ptr %118, align 4, !tbaa !37
  %120 = load i32, ptr %16, align 4, !tbaa !37
  %121 = load i32, ptr %15, align 4, !tbaa !37
  %122 = sub nsw i32 %120, %121
  call void @av_image_copy_plane(ptr noundef %85, i32 noundef %91, ptr noundef %107, i32 noundef %113, i32 noundef %119, i32 noundef %122)
  store i32 4, ptr %17, align 4
  br label %254

123:                                              ; preds = %66
  %124 = load ptr, ptr %9, align 8, !tbaa !22
  %125 = getelementptr inbounds nuw %struct.PreMultiplyContext, ptr %124, i32 0, i32 13
  %126 = load i32, ptr %14, align 4, !tbaa !37
  %127 = sext i32 %126 to i64
  %128 = getelementptr inbounds [4 x ptr], ptr %125, i64 0, i64 %127
  %129 = load ptr, ptr %128, align 8, !tbaa !86
  %130 = load ptr, ptr %13, align 8, !tbaa !41
  %131 = getelementptr inbounds nuw %struct.AVFrame, ptr %130, i32 0, i32 0
  %132 = load i32, ptr %14, align 4, !tbaa !37
  %133 = sext i32 %132 to i64
  %134 = getelementptr inbounds [8 x ptr], ptr %131, i64 0, i64 %133
  %135 = load ptr, ptr %134, align 8, !tbaa !91
  %136 = load i32, ptr %15, align 4, !tbaa !37
  %137 = load ptr, ptr %13, align 8, !tbaa !41
  %138 = getelementptr inbounds nuw %struct.AVFrame, ptr %137, i32 0, i32 1
  %139 = load i32, ptr %14, align 4, !tbaa !37
  %140 = sext i32 %139 to i64
  %141 = getelementptr inbounds [8 x i32], ptr %138, i64 0, i64 %140
  %142 = load i32, ptr %141, align 4, !tbaa !37
  %143 = mul nsw i32 %136, %142
  %144 = sext i32 %143 to i64
  %145 = getelementptr inbounds i8, ptr %135, i64 %144
  %146 = load ptr, ptr %9, align 8, !tbaa !22
  %147 = getelementptr inbounds nuw %struct.PreMultiplyContext, ptr %146, i32 0, i32 7
  %148 = load i32, ptr %147, align 4, !tbaa !38
  %149 = icmp ne i32 %148, 0
  br i1 %149, label %150, label %163

150:                                              ; preds = %123
  %151 = load ptr, ptr %12, align 8, !tbaa !41
  %152 = getelementptr inbounds nuw %struct.AVFrame, ptr %151, i32 0, i32 0
  %153 = getelementptr inbounds [8 x ptr], ptr %152, i64 0, i64 3
  %154 = load ptr, ptr %153, align 8, !tbaa !91
  %155 = load i32, ptr %15, align 4, !tbaa !37
  %156 = load ptr, ptr %12, align 8, !tbaa !41
  %157 = getelementptr inbounds nuw %struct.AVFrame, ptr %156, i32 0, i32 1
  %158 = getelementptr inbounds [8 x i32], ptr %157, i64 0, i64 3
  %159 = load i32, ptr %158, align 4, !tbaa !37
  %160 = mul nsw i32 %155, %159
  %161 = sext i32 %160 to i64
  %162 = getelementptr inbounds i8, ptr %154, i64 %161
  br label %176

163:                                              ; preds = %123
  %164 = load ptr, ptr %12, align 8, !tbaa !41
  %165 = getelementptr inbounds nuw %struct.AVFrame, ptr %164, i32 0, i32 0
  %166 = getelementptr inbounds [8 x ptr], ptr %165, i64 0, i64 0
  %167 = load ptr, ptr %166, align 8, !tbaa !91
  %168 = load i32, ptr %15, align 4, !tbaa !37
  %169 = load ptr, ptr %12, align 8, !tbaa !41
  %170 = getelementptr inbounds nuw %struct.AVFrame, ptr %169, i32 0, i32 1
  %171 = getelementptr inbounds [8 x i32], ptr %170, i64 0, i64 0
  %172 = load i32, ptr %171, align 8, !tbaa !37
  %173 = mul nsw i32 %168, %172
  %174 = sext i32 %173 to i64
  %175 = getelementptr inbounds i8, ptr %167, i64 %174
  br label %176

176:                                              ; preds = %163, %150
  %177 = phi ptr [ %162, %150 ], [ %175, %163 ]
  %178 = load ptr, ptr %11, align 8, !tbaa !41
  %179 = getelementptr inbounds nuw %struct.AVFrame, ptr %178, i32 0, i32 0
  %180 = load i32, ptr %14, align 4, !tbaa !37
  %181 = sext i32 %180 to i64
  %182 = getelementptr inbounds [8 x ptr], ptr %179, i64 0, i64 %181
  %183 = load ptr, ptr %182, align 8, !tbaa !91
  %184 = load i32, ptr %15, align 4, !tbaa !37
  %185 = load ptr, ptr %11, align 8, !tbaa !41
  %186 = getelementptr inbounds nuw %struct.AVFrame, ptr %185, i32 0, i32 1
  %187 = load i32, ptr %14, align 4, !tbaa !37
  %188 = sext i32 %187 to i64
  %189 = getelementptr inbounds [8 x i32], ptr %186, i64 0, i64 %188
  %190 = load i32, ptr %189, align 4, !tbaa !37
  %191 = mul nsw i32 %184, %190
  %192 = sext i32 %191 to i64
  %193 = getelementptr inbounds i8, ptr %183, i64 %192
  %194 = load ptr, ptr %13, align 8, !tbaa !41
  %195 = getelementptr inbounds nuw %struct.AVFrame, ptr %194, i32 0, i32 1
  %196 = load i32, ptr %14, align 4, !tbaa !37
  %197 = sext i32 %196 to i64
  %198 = getelementptr inbounds [8 x i32], ptr %195, i64 0, i64 %197
  %199 = load i32, ptr %198, align 4, !tbaa !37
  %200 = sext i32 %199 to i64
  %201 = load ptr, ptr %9, align 8, !tbaa !22
  %202 = getelementptr inbounds nuw %struct.PreMultiplyContext, ptr %201, i32 0, i32 7
  %203 = load i32, ptr %202, align 4, !tbaa !38
  %204 = icmp ne i32 %203, 0
  br i1 %204, label %205, label %210

205:                                              ; preds = %176
  %206 = load ptr, ptr %12, align 8, !tbaa !41
  %207 = getelementptr inbounds nuw %struct.AVFrame, ptr %206, i32 0, i32 1
  %208 = getelementptr inbounds [8 x i32], ptr %207, i64 0, i64 3
  %209 = load i32, ptr %208, align 4, !tbaa !37
  br label %215

210:                                              ; preds = %176
  %211 = load ptr, ptr %12, align 8, !tbaa !41
  %212 = getelementptr inbounds nuw %struct.AVFrame, ptr %211, i32 0, i32 1
  %213 = getelementptr inbounds [8 x i32], ptr %212, i64 0, i64 0
  %214 = load i32, ptr %213, align 8, !tbaa !37
  br label %215

215:                                              ; preds = %210, %205
  %216 = phi i32 [ %209, %205 ], [ %214, %210 ]
  %217 = sext i32 %216 to i64
  %218 = load ptr, ptr %11, align 8, !tbaa !41
  %219 = getelementptr inbounds nuw %struct.AVFrame, ptr %218, i32 0, i32 1
  %220 = load i32, ptr %14, align 4, !tbaa !37
  %221 = sext i32 %220 to i64
  %222 = getelementptr inbounds [8 x i32], ptr %219, i64 0, i64 %221
  %223 = load i32, ptr %222, align 4, !tbaa !37
  %224 = sext i32 %223 to i64
  %225 = load ptr, ptr %9, align 8, !tbaa !22
  %226 = getelementptr inbounds nuw %struct.PreMultiplyContext, ptr %225, i32 0, i32 1
  %227 = load i32, ptr %14, align 4, !tbaa !37
  %228 = sext i32 %227 to i64
  %229 = getelementptr inbounds [4 x i32], ptr %226, i64 0, i64 %228
  %230 = load i32, ptr %229, align 4, !tbaa !37
  %231 = load i32, ptr %16, align 4, !tbaa !37
  %232 = load i32, ptr %15, align 4, !tbaa !37
  %233 = sub nsw i32 %231, %232
  %234 = load ptr, ptr %9, align 8, !tbaa !22
  %235 = getelementptr inbounds nuw %struct.PreMultiplyContext, ptr %234, i32 0, i32 8
  %236 = load i32, ptr %235, align 8, !tbaa !137
  %237 = load ptr, ptr %9, align 8, !tbaa !22
  %238 = getelementptr inbounds nuw %struct.PreMultiplyContext, ptr %237, i32 0, i32 6
  %239 = load i32, ptr %238, align 8, !tbaa !27
  %240 = icmp ne i32 %239, 0
  br i1 %240, label %241, label %245

241:                                              ; preds = %215
  %242 = load ptr, ptr %9, align 8, !tbaa !22
  %243 = getelementptr inbounds nuw %struct.PreMultiplyContext, ptr %242, i32 0, i32 11
  %244 = load i32, ptr %243, align 4, !tbaa !138
  br label %249

245:                                              ; preds = %215
  %246 = load ptr, ptr %9, align 8, !tbaa !22
  %247 = getelementptr inbounds nuw %struct.PreMultiplyContext, ptr %246, i32 0, i32 9
  %248 = load i32, ptr %247, align 4, !tbaa !139
  br label %249

249:                                              ; preds = %245, %241
  %250 = phi i32 [ %244, %241 ], [ %248, %245 ]
  %251 = load ptr, ptr %9, align 8, !tbaa !22
  %252 = getelementptr inbounds nuw %struct.PreMultiplyContext, ptr %251, i32 0, i32 10
  %253 = load i32, ptr %252, align 8, !tbaa !140
  call void %129(ptr noundef %145, ptr noundef %177, ptr noundef %193, i64 noundef %200, i64 noundef %217, i64 noundef %224, i32 noundef %230, i32 noundef %233, i32 noundef %236, i32 noundef %250, i32 noundef %253)
  store i32 0, ptr %17, align 4
  br label %254

254:                                              ; preds = %249, %69
  call void @llvm.lifetime.end.p0(i64 4, ptr %16) #11
  call void @llvm.lifetime.end.p0(i64 4, ptr %15) #11
  %255 = load i32, ptr %17, align 4
  switch i32 %255, label %261 [
    i32 0, label %256
    i32 4, label %257
  ]

256:                                              ; preds = %254
  br label %257

257:                                              ; preds = %256, %254
  %258 = load i32, ptr %14, align 4, !tbaa !37
  %259 = add nsw i32 %258, 1
  store i32 %259, ptr %14, align 4, !tbaa !37
  br label %31, !llvm.loop !141

260:                                              ; preds = %31
  store i32 1, ptr %17, align 4
  call void @llvm.lifetime.end.p0(i64 4, ptr %14) #11
  call void @llvm.lifetime.end.p0(i64 8, ptr %13) #11
  call void @llvm.lifetime.end.p0(i64 8, ptr %12) #11
  call void @llvm.lifetime.end.p0(i64 8, ptr %11) #11
  call void @llvm.lifetime.end.p0(i64 8, ptr %10) #11
  call void @llvm.lifetime.end.p0(i64 8, ptr %9) #11
  ret i32 0

261:                                              ; preds = %254
  unreachable
}