; Function Attrs: nounwind uwtable
define internal noundef i32 @premultiply_slice(ptr noundef readonly captures(none) %0, ptr noundef readonly captures(none) %1, i32 noundef %2, i32 noundef %3) #1 {
  %5 = getelementptr inbounds nuw i8, ptr %0, i64 72
  %6 = load ptr, ptr %5, align 8, !tbaa !4
  %7 = getelementptr inbounds nuw i8, ptr %1, i64 16
  %8 = load ptr, ptr %7, align 8, !tbaa !74
  %9 = getelementptr inbounds nuw i8, ptr %1, i64 8
  %10 = load ptr, ptr %9, align 8, !tbaa !76
  %11 = load ptr, ptr %1, align 8, !tbaa !77
  %12 = getelementptr inbounds nuw i8, ptr %6, i64 56
  %13 = load i32, ptr %12, align 8, !tbaa !115
  %14 = icmp sgt i32 %13, 0
  br i1 %14, label %.lr.ph, label %._crit_edge

.lr.ph:                                           ; preds = %4
  %15 = getelementptr inbounds nuw i8, ptr %6, i64 24
  %16 = add nsw i32 %2, 1
  %17 = getelementptr inbounds nuw i8, ptr %6, i64 60
  %18 = getelementptr inbounds nuw i8, ptr %6, i64 184
  %19 = getelementptr inbounds nuw i8, ptr %11, i64 64
  %20 = getelementptr inbounds nuw i8, ptr %6, i64 68
  %21 = getelementptr inbounds nuw i8, ptr %8, i64 64
  %22 = getelementptr inbounds nuw i8, ptr %6, i64 8
  %23 = getelementptr inbounds nuw i8, ptr %6, i64 72
  %24 = getelementptr inbounds nuw i8, ptr %6, i64 64
  %25 = getelementptr inbounds nuw i8, ptr %6, i64 80
  %26 = getelementptr inbounds nuw i8, ptr %6, i64 40
  br label %27

27:                                               ; preds = %.lr.ph, %89
  %indvars.iv = phi i64 [ 0, %.lr.ph ], [ %indvars.iv.next, %89 ]
  %28 = getelementptr inbounds nuw [4 x i32], ptr %15, i64 0, i64 %indvars.iv
  %29 = load i32, ptr %28, align 4, !tbaa !44
  %30 = mul nsw i32 %29, %2
  %31 = sdiv i32 %30, %3
  %32 = mul nsw i32 %29, %16
  %33 = sdiv i32 %32, %3
  %34 = trunc nuw nsw i64 %indvars.iv to i32
  %35 = shl nuw i32 1, %34
  %36 = load i32, ptr %17, align 4, !tbaa !116
  %37 = and i32 %36, %35
  %38 = icmp eq i32 %37, 0
  %39 = icmp eq i64 %indvars.iv, 3
  %or.cond = or i1 %39, %38
  br i1 %or.cond, label %40, label %58

40:                                               ; preds = %27
  %41 = getelementptr inbounds nuw [8 x ptr], ptr %8, i64 0, i64 %indvars.iv
  %42 = load ptr, ptr %41, align 8, !tbaa !117
  %43 = getelementptr inbounds nuw [8 x i32], ptr %21, i64 0, i64 %indvars.iv
  %44 = load i32, ptr %43, align 4, !tbaa !44
  %45 = mul nsw i32 %44, %31
  %46 = sext i32 %45 to i64
  %47 = getelementptr inbounds i8, ptr %42, i64 %46
  %48 = getelementptr inbounds nuw [8 x ptr], ptr %11, i64 0, i64 %indvars.iv
  %49 = load ptr, ptr %48, align 8, !tbaa !117
  %50 = getelementptr inbounds nuw [8 x i32], ptr %19, i64 0, i64 %indvars.iv
  %51 = load i32, ptr %50, align 4, !tbaa !44
  %52 = mul nsw i32 %51, %31
  %53 = sext i32 %52 to i64
  %54 = getelementptr inbounds i8, ptr %49, i64 %53
  %55 = getelementptr inbounds nuw [4 x i32], ptr %26, i64 0, i64 %indvars.iv
  %56 = load i32, ptr %55, align 4, !tbaa !44
  %57 = sub nsw i32 %33, %31
  tail call void @av_image_copy_plane(ptr noundef %47, i32 noundef %44, ptr noundef %54, i32 noundef %51, i32 noundef %56, i32 noundef %57) #11
  br label %89

58:                                               ; preds = %27
  %59 = getelementptr inbounds nuw [4 x ptr], ptr %18, i64 0, i64 %indvars.iv
  %60 = load ptr, ptr %59, align 8, !tbaa !73
  %61 = getelementptr inbounds nuw [8 x ptr], ptr %11, i64 0, i64 %indvars.iv
  %62 = load ptr, ptr %61, align 8, !tbaa !117
  %63 = getelementptr inbounds nuw [8 x i32], ptr %19, i64 0, i64 %indvars.iv
  %64 = load i32, ptr %63, align 4, !tbaa !44
  %65 = mul nsw i32 %64, %31
  %66 = sext i32 %65 to i64
  %67 = getelementptr inbounds i8, ptr %62, i64 %66
  %68 = load i32, ptr %20, align 4, !tbaa !34
  %.not = icmp eq i32 %68, 0
  %..v = select i1 %.not, i64 64, i64 76
  %. = getelementptr inbounds nuw i8, ptr %10, i64 %..v
  %.80.idx = select i1 %.not, i64 0, i64 24
  %.80 = getelementptr inbounds nuw i8, ptr %10, i64 %.80.idx
  %.sink79 = load i32, ptr %., align 4, !tbaa !44
  %.sink = load ptr, ptr %.80, align 8, !tbaa !117
  %69 = mul nsw i32 %.sink79, %31
  %70 = sext i32 %69 to i64
  %71 = getelementptr inbounds i8, ptr %.sink, i64 %70
  %72 = getelementptr inbounds nuw [8 x ptr], ptr %8, i64 0, i64 %indvars.iv
  %73 = load ptr, ptr %72, align 8, !tbaa !117
  %74 = getelementptr inbounds nuw [8 x i32], ptr %21, i64 0, i64 %indvars.iv
  %75 = load i32, ptr %74, align 4, !tbaa !44
  %76 = mul nsw i32 %75, %31
  %77 = sext i32 %76 to i64
  %78 = getelementptr inbounds i8, ptr %73, i64 %77
  %79 = sext i32 %64 to i64
  %80 = sext i32 %.sink79 to i64
  %81 = sext i32 %75 to i64
  %82 = getelementptr inbounds nuw [4 x i32], ptr %22, i64 0, i64 %indvars.iv
  %83 = load i32, ptr %82, align 4, !tbaa !44
  %84 = sub nsw i32 %33, %31
  %85 = load i32, ptr %23, align 8, !tbaa !118
  %86 = load i32, ptr %24, align 8, !tbaa !23
  %.not73 = icmp eq i32 %86, 0
  %.in74.v = select i1 %.not73, i64 76, i64 84
  %.in74 = getelementptr inbounds nuw i8, ptr %6, i64 %.in74.v
  %87 = load i32, ptr %.in74, align 4, !tbaa !44
  %88 = load i32, ptr %25, align 8, !tbaa !119
  tail call void %60(ptr noundef %67, ptr noundef %71, ptr noundef %78, i64 noundef %79, i64 noundef %80, i64 noundef %81, i32 noundef %83, i32 noundef %84, i32 noundef %85, i32 noundef %87, i32 noundef %88) #11
  br label %89

89:                                               ; preds = %58, %40
  %indvars.iv.next = add nuw nsw i64 %indvars.iv, 1
  %90 = load i32, ptr %12, align 8, !tbaa !115
  %91 = sext i32 %90 to i64
  %92 = icmp slt i64 %indvars.iv.next, %91
  br i1 %92, label %27, label %._crit_edge, !llvm.loop !120

._crit_edge:                                      ; preds = %89, %4
  ret i32 0
}